target datalayout = "e-m:e-p270:32:32-p271:32:32-p272:64:64-i64:64-i128:128-f80:128-n8:16:32:64-S128"
target triple = "x86_64-pc-linux-gnu"

%"class.clang::ento::StoreManager" = type { ptr, ptr, ptr, ptr, ptr }
%"class.llvm::FoldingSetBase" = type { ptr, i32, i32 }
%"class.clang::ento::SValBuilder" = type <{ ptr, ptr, %"class.clang::ento::BasicValueFactory", %"class.clang::ento::SymbolManager", %"class.clang::ento::MemRegionManager", ptr, ptr, %"class.clang::QualType", i32, [4 x i8] }>
%"class.clang::ento::BasicValueFactory" = type { ptr, ptr, %"class.llvm::FoldingSet.43", ptr, ptr, %"class.llvm::ImmutableListFactory", %"class.llvm::ImmutableListFactory.47", %"class.llvm::FoldingSet.50", %"class.llvm::FoldingSet.52", %"class.llvm::FoldingSet.54" }
%"class.llvm::FoldingSet.43" = type { %"class.llvm::FoldingSetImpl.44" }
%"class.llvm::FoldingSetImpl.44" = type { %"class.llvm::FoldingSetBase" }
%"class.llvm::ImmutableListFactory" = type { %"class.llvm::FoldingSet.45", i64 }
%"class.llvm::FoldingSet.45" = type { %"class.llvm::FoldingSetImpl.46" }
%"class.llvm::FoldingSetImpl.46" = type { %"class.llvm::FoldingSetBase" }
%"class.llvm::ImmutableListFactory.47" = type { %"class.llvm::FoldingSet.48", i64 }
%"class.llvm::FoldingSet.48" = type { %"class.llvm::FoldingSetImpl.49" }
%"class.llvm::FoldingSetImpl.49" = type { %"class.llvm::FoldingSetBase" }
%"class.llvm::FoldingSet.50" = type { %"class.llvm::FoldingSetImpl.51" }
%"class.llvm::FoldingSetImpl.51" = type { %"class.llvm::FoldingSetBase" }
%"class.llvm::FoldingSet.52" = type { %"class.llvm::FoldingSetImpl.53" }
%"class.llvm::FoldingSetImpl.53" = type { %"class.llvm::FoldingSetBase" }
%"class.llvm::FoldingSet.54" = type { %"class.llvm::FoldingSetImpl.55" }
%"class.llvm::FoldingSetImpl.55" = type { %"class.llvm::FoldingSetBase" }
%"class.clang::ento::SymbolManager" = type { %"class.llvm::FoldingSet.56", %"class.llvm::DenseMap.58", i32, ptr, ptr, ptr }
%"class.llvm::FoldingSet.56" = type { %"class.llvm::FoldingSetImpl.57" }
%"class.llvm::FoldingSetImpl.57" = type { %"class.llvm::FoldingSetBase" }
%"class.llvm::DenseMap.58" = type <{ ptr, i32, i32, i32, [4 x i8] }>
%"class.clang::ento::MemRegionManager" = type { ptr, ptr, %"class.llvm::FoldingSet.61", ptr, ptr, ptr, %"class.llvm::DenseMap.63", %"class.llvm::DenseMap.66", %"class.llvm::DenseMap.69", ptr, ptr, ptr }
%"class.llvm::FoldingSet.61" = type { %"class.llvm::FoldingSetImpl.62" }
%"class.llvm::FoldingSetImpl.62" = type { %"class.llvm::FoldingSetBase" }
%"class.llvm::DenseMap.63" = type <{ ptr, i32, i32, i32, [4 x i8] }>
%"class.llvm::DenseMap.66" = type <{ ptr, i32, i32, i32, [4 x i8] }>
%"class.llvm::DenseMap.69" = type <{ ptr, i32, i32, i32, [4 x i8] }>
%"class.clang::QualType" = type { %"class.llvm::PointerIntPair" }
%"class.llvm::PointerIntPair" = type { %"struct.llvm::detail::PunnedPointer" }
%"struct.llvm::detail::PunnedPointer" = type { [8 x i8] }
%"class.clang::ento::DefinedSVal.base" = type { %"class.clang::ento::DefinedOrUnknownSVal.base" }
%"class.clang::ento::DefinedOrUnknownSVal.base" = type { %"class.clang::ento::SVal.base" }
%"class.clang::ento::SVal.base" = type <{ ptr, i8 }>
%"class.clang::ento::SVal" = type <{ ptr, i8, [7 x i8] }>
%"class.clang::ento::NonLoc" = type { %"class.clang::ento::DefinedSVal.base", [7 x i8] }
%"class.clang::ento::nonloc::ConcreteInt" = type { %"class.clang::ento::NonLoc.base", [7 x i8] }
%"class.clang::ento::NonLoc.base" = type { %"class.clang::ento::DefinedSVal.base" }

; Function Attrs: mustprogress nounwind uwtable
define linkonce_odr hidden void @_ZN5clang4ento4SValC2ENS1_8SValKindEPKv(ptr noundef nonnull align 8 dereferenceable(9) %0, i8 noundef zeroext %1, ptr noundef %2) unnamed_addr #0 comdat align 2 {
  %4 = alloca ptr, align 8
  %5 = alloca i8, align 1
  %6 = alloca ptr, align 8
  store ptr %0, ptr %4, align 8
  store i8 %1, ptr %5, align 1
  store ptr %2, ptr %6, align 8
  %7 = load ptr, ptr %4, align 8
  %8 = getelementptr inbounds nuw %"class.clang::ento::SVal", ptr %7, i32 0, i32 0
  %9 = load ptr, ptr %6, align 8
  store ptr %9, ptr %8, align 8
  %10 = getelementptr inbounds nuw %"class.clang::ento::SVal", ptr %7, i32 0, i32 1
  %11 = load i8, ptr %5, align 1
  store i8 %11, ptr %10, align 8
  ret void
}

; Function Attrs: mustprogress nounwind uwtable
define linkonce_odr hidden void @_ZN5clang4ento20DefinedOrUnknownSValC2ENS0_4SVal8SValKindEPKv(ptr noundef nonnull align 8 dereferenceable(9) %0, i8 noundef zeroext %1, ptr noundef %2) unnamed_addr #0 comdat align 2 {
  %4 = alloca ptr, align 8
  %5 = alloca i8, align 1
  %6 = alloca ptr, align 8
  store ptr %0, ptr %4, align 8
  store i8 %1, ptr %5, align 1
  store ptr %2, ptr %6, align 8
  %7 = load ptr, ptr %4, align 8
  %8 = load i8, ptr %5, align 1
  %9 = load ptr, ptr %6, align 8
  call void @_ZN5clang4ento4SValC2ENS1_8SValKindEPKv(ptr noundef nonnull align 8 dereferenceable(9) %7, i8 noundef zeroext %8, ptr noundef %9)
  ret void
}

; Function Attrs: mustprogress nounwind uwtable
define linkonce_odr hidden void @_ZN5clang4ento11DefinedSValC2ENS0_4SVal8SValKindEPKv(ptr noundef nonnull align 8 dereferenceable(9) %0, i8 noundef zeroext %1, ptr noundef %2) unnamed_addr #0 comdat align 2 {
  %4 = alloca ptr, align 8
  %5 = alloca i8, align 1
  %6 = alloca ptr, align 8
  store ptr %0, ptr %4, align 8
  store i8 %1, ptr %5, align 1
  store ptr %2, ptr %6, align 8
  %7 = load ptr, ptr %4, align 8
  %8 = load i8, ptr %5, align 1
  %9 = load ptr, ptr %6, align 8
  call void @_ZN5clang4ento20DefinedOrUnknownSValC2ENS0_4SVal8SValKindEPKv(ptr noundef nonnull align 8 dereferenceable(9) %7, i8 noundef zeroext %8, ptr noundef %9)
  ret void
}

; Function Attrs: mustprogress nounwind uwtable
define linkonce_odr hidden void @_ZN5clang4ento6NonLocC2ENS0_4SVal8SValKindEPKv(ptr noundef nonnull align 8 dereferenceable(9) %0, i8 noundef zeroext %1, ptr noundef %2) unnamed_addr #0 comdat align 2 {
  %4 = alloca ptr, align 8
  %5 = alloca i8, align 1
  %6 = alloca ptr, align 8
  store ptr %0, ptr %4, align 8
  store i8 %1, ptr %5, align 1
  store ptr %2, ptr %6, align 8
  %7 = load ptr, ptr %4, align 8
  %8 = load i8, ptr %5, align 1
  %9 = load ptr, ptr %6, align 8
  call void @_ZN5clang4ento11DefinedSValC2ENS0_4SVal8SValKindEPKv(ptr noundef nonnull align 8 dereferenceable(9) %7, i8 noundef zeroext %8, ptr noundef %9)
  ret void
}

; Function Attrs: mustprogress nounwind uwtable
define linkonce_odr hidden void @_ZN5clang4ento6nonloc11ConcreteIntC2ERKN4llvm6APSIntE(ptr noundef nonnull align 8 dereferenceable(9) %0, ptr noundef nonnull align 8 dereferenceable(13) %1) unnamed_addr #0 comdat align 2 {
  %3 = alloca ptr, align 8
  %4 = alloca ptr, align 8
  store ptr %0, ptr %3, align 8
  store ptr %1, ptr %4, align 8
  %5 = load ptr, ptr %3, align 8
  %6 = load ptr, ptr %4, align 8
  call void @_ZN5clang4ento6NonLocC2ENS0_4SVal8SValKindEPKv(ptr noundef nonnull align 8 dereferenceable(9) %5, i8 noundef zeroext 6, ptr noundef %6)
  ret void
}

; Function Attrs: mustprogress nounwind uwtable
define linkonce_odr hidden noundef nonnull align 8 dereferenceable(23096) ptr @_ZN5clang4ento11SValBuilder10getContextEv(ptr noundef nonnull align 8 dereferenceable(412) %0) #0 comdat align 2 {
  %2 = alloca ptr, align 8
  store ptr %0, ptr %2, align 8
  %3 = load ptr, ptr %2, align 8
  %4 = getelementptr inbounds nuw %"class.clang::ento::SValBuilder", ptr %3, i32 0, i32 1
  %5 = load ptr, ptr %4, align 8
  ret ptr %5
}

; Function Attrs: mustprogress nounwind uwtable
define linkonce_odr hidden { ptr, i8 } @_ZN5clang4ento11SValBuilder14makeArrayIndexEm(ptr noundef nonnull align 8 dereferenceable(412) %0, i64 noundef %1) #0 comdat align 2 {
  %3 = alloca %"class.clang::ento::NonLoc", align 8
  %4 = alloca ptr, align 8
  %5 = alloca i64, align 8
  %6 = alloca %"class.clang::ento::nonloc::ConcreteInt", align 8
  %7 = alloca %"class.clang::QualType", align 8
  store ptr %0, ptr %4, align 8
  store i64 %1, ptr %5, align 8
  %8 = load ptr, ptr %4, align 8
  %9 = getelementptr inbounds nuw %"class.clang::ento::SValBuilder", ptr %8, i32 0, i32 2
  %10 = load i64, ptr %5, align 8
  %11 = getelementptr inbounds nuw %"class.clang::ento::SValBuilder", ptr %8, i32 0, i32 7
  call void @llvm.memcpy.p0.p0.i64(ptr align 8 %7, ptr align 8 %11, i64 8, i1 false)
  %12 = getelementptr inbounds nuw %"class.clang::QualType", ptr %7, i32 0, i32 0
  %13 = getelementptr inbounds nuw %"class.llvm::PointerIntPair", ptr %12, i32 0, i32 0
  %14 = getelementptr inbounds nuw %"struct.llvm::detail::PunnedPointer", ptr %13, i32 0, i32 0
  %15 = load i64, ptr %14, align 8
  %16 = call noundef nonnull align 8 dereferenceable(13) ptr @_ZN5clang4ento17BasicValueFactory8getValueEmNS_8QualTypeE(ptr noundef nonnull align 8 dereferenceable(144) %9, i64 noundef %10, i64 %15)
  call void @_ZN5clang4ento6nonloc11ConcreteIntC2ERKN4llvm6APSIntE(ptr noundef nonnull align 8 dereferenceable(9) %6, ptr noundef nonnull align 8 dereferenceable(13) %16)
  call void @llvm.memcpy.p0.p0.i64(ptr align 8 %3, ptr align 8 %6, i64 16, i1 false)
  %17 = load { ptr, i8 }, ptr %3, align 8
  ret { ptr, i8 } %17
}

; Function Attrs: mustprogress nounwind uwtable
define dso_local noundef ptr @_ZN5clang4ento12StoreManager17MakeElementRegionEPKNS0_9SubRegionENS_8QualTypeEm(ptr noundef nonnull align 8 dereferenceable(40) %0, ptr noundef %1, i64 %2, i64 noundef %3) #0 align 2 {
  %5 = alloca %"class.clang::QualType", align 8
  %6 = alloca ptr, align 8
  %7 = alloca ptr, align 8
  %8 = alloca i64, align 8
  %9 = alloca %"class.clang::ento::NonLoc", align 8
  %10 = alloca { ptr, i8 }, align 8
  %11 = alloca %"class.clang::QualType", align 8
  %12 = alloca %"class.clang::ento::NonLoc", align 8
  %13 = getelementptr inbounds nuw %"class.clang::QualType", ptr %5, i32 0, i32 0
  %14 = getelementptr inbounds nuw %"class.llvm::PointerIntPair", ptr %13, i32 0, i32 0
  %15 = getelementptr inbounds nuw %"struct.llvm::detail::PunnedPointer", ptr %14, i32 0, i32 0
  store i64 %2, ptr %15, align 8
  store ptr %0, ptr %6, align 8
  store ptr %1, ptr %7, align 8
  store i64 %3, ptr %8, align 8
  %16 = load ptr, ptr %6, align 8
  %17 = getelementptr inbounds nuw %"class.clang::ento::StoreManager", ptr %16, i32 0, i32 1
  %18 = load ptr, ptr %17, align 8
  %19 = load i64, ptr %8, align 8
  %20 = call { ptr, i8 } @_ZN5clang4ento11SValBuilder14makeArrayIndexEm(ptr noundef nonnull align 8 dereferenceable(412) %18, i64 noundef %19)
  store { ptr, i8 } %20, ptr %10, align 8
  call void @llvm.memcpy.p0.p0.i64(ptr align 8 %9, ptr align 8 %10, i64 9, i1 false)
  %21 = getelementptr inbounds nuw %"class.clang::ento::StoreManager", ptr %16, i32 0, i32 3
  %22 = load ptr, ptr %21, align 8
  call void @llvm.memcpy.p0.p0.i64(ptr align 8 %11, ptr align 8 %5, i64 8, i1 false)
  call void @llvm.memcpy.p0.p0.i64(ptr align 8 %12, ptr align 8 %9, i64 16, i1 false)
  %23 = load ptr, ptr %7, align 8
  %24 = getelementptr inbounds nuw %"class.clang::ento::StoreManager", ptr %16, i32 0, i32 1
  %25 = load ptr, ptr %24, align 8
  %26 = call noundef nonnull align 8 dereferenceable(23096) ptr @_ZN5clang4ento11SValBuilder10getContextEv(ptr noundef nonnull align 8 dereferenceable(412) %25)
  %27 = getelementptr inbounds nuw %"class.clang::QualType", ptr %11, i32 0, i32 0
  %28 = getelementptr inbounds nuw %"class.llvm::PointerIntPair", ptr %27, i32 0, i32 0
  %29 = getelementptr inbounds nuw %"struct.llvm::detail::PunnedPointer", ptr %28, i32 0, i32 0
  %30 = load i64, ptr %29, align 8
  %31 = getelementptr inbounds nuw { ptr, i8 }, ptr %12, i32 0, i32 0
  %32 = load ptr, ptr %31, align 8
  %33 = getelementptr inbounds nuw { ptr, i8 }, ptr %12, i32 0, i32 1
  %34 = load i8, ptr %33, align 8
  %35 = call noundef ptr @_ZN5clang4ento16MemRegionManager16getElementRegionENS_8QualTypeENS0_6NonLocEPKNS0_9SubRegionERKNS_10ASTContextE(ptr noundef nonnull align 8 dereferenceable(152) %22, i64 %30, ptr %32, i8 %34, ptr noundef %23, ptr noundef nonnull align 8 dereferenceable(23096) %26)
  ret ptr %35
}