; Function Attrs: mustprogress nounwind uwtable
define dso_local noundef ptr @_ZN5clang4ento12StoreManager17MakeElementRegionEPKNS0_9SubRegionENS_8QualTypeEm(ptr noundef nonnull readonly align 8 captures(none) dereferenceable(40) %0, ptr noundef %1, i64 %2, i64 noundef %3) local_unnamed_addr #1 align 2 {
  %5 = getelementptr inbounds nuw i8, ptr %0, i64 8
  %6 = load ptr, ptr %5, align 8
  %7 = getelementptr inbounds nuw i8, ptr %6, i64 16
  %8 = getelementptr inbounds nuw i8, ptr %6, i64 400
  %.sroa.0.0.copyload.i = load i64, ptr %8, align 8
  %9 = tail call noundef nonnull align 8 dereferenceable(13) ptr @_ZN5clang4ento17BasicValueFactory8getValueEmNS_8QualTypeE(ptr noundef nonnull align 8 dereferenceable(144) %7, i64 noundef %3, i64 %.sroa.0.0.copyload.i) #10
  %10 = getelementptr inbounds nuw i8, ptr %0, i64 24
  %11 = load ptr, ptr %10, align 8
  %12 = load ptr, ptr %5, align 8
  %13 = getelementptr inbounds nuw i8, ptr %12, i64 8
  %14 = load ptr, ptr %13, align 8
  %15 = tail call noundef ptr @_ZN5clang4ento16MemRegionManager16getElementRegionENS_8QualTypeENS0_6NonLocEPKNS0_9SubRegionERKNS_10ASTContextE(ptr noundef nonnull align 8 dereferenceable(152) %11, i64 %2, ptr nonnull %9, i8 6, ptr noundef %1, ptr noundef nonnull align 8 dereferenceable(23096) %14) #10
  ret ptr %15
}